target datalayout = "e-m:e-p270:32:32-p271:32:32-p272:64:64-i64:64-i128:128-f80:128-n8:16:32:64-S128"
target triple = "x86_64-pc-linux-gnu"

%struct._e_prefs = type { ptr, i32, %struct.color_t, %struct.color_t, %struct.color_t, %struct.color_t, %struct.color_t, %struct.color_t, %struct.color_t, i32, i32, ptr, %struct.color_t, %struct.color_t, i32, %struct.color_t, %struct.color_t, i32, %struct.color_t, %struct.color_t, %struct.color_t, %struct.color_t, ptr, ptr, i32, i32, i32, i32, i32, i32, ptr, i32, ptr, i32, i32, i32, ptr, ptr, ptr, i32, i32, i32, i32, i32, i32, i32, i32, i32, i32, ptr, i32, i32, i32, i32, i32, ptr, ptr, ptr, ptr, ptr, ptr, ptr, ptr, ptr, i32, i32, i32, i32, i32, i32, i32, i32, ptr, i32, i32, i32, i32, i32, i32, i32, i32, i32, i32, i32, i32, i32, i32, ptr, i32, i32, i32, i32, i32, i32, i32, i32, i32, i32, i32, i32, i32, i32, i32, i32, i32, i32, i32, i32, i32, i32, i32, i32, i32, i32, i32 }
%struct.color_t = type { i16, i16, i16 }
%class.QModelIndex = type { i32, i32, i64, ptr }
%class.QObject = type { ptr, %class.QScopedPointer }
%class.QScopedPointer = type { ptr }
%class.QPaintDevice.base = type <{ ptr, i16 }>
%class.QList.9 = type { %struct.QArrayDataPointer.12 }
%struct.QArrayDataPointer.12 = type { ptr, ptr, i64 }
%class.PacketList = type { %class.QTreeView, ptr, ptr, ptr, ptr, %class.QMenu, %class.QMenu, %class.QMenu, i32, %class.QByteArray, ptr, i32, i8, i8, %class.QList, i8, %class.QModelIndex, %class.RelatedPacketDelegate, ptr, %class.QList.1, i8, i8, i8, i8, i8, %class.QModelIndex, %class.QList.5, %class.QList.9, i32, i8, ptr }
%class.QTreeView = type { %class.QAbstractItemView }
%class.QAbstractItemView = type { %class.QAbstractScrollArea }
%class.QAbstractScrollArea = type { %class.QFrame }
%class.QFrame = type { %class.QWidget }
%class.QWidget = type { %class.QObject, %class.QPaintDevice.base, ptr }
%class.QMenu = type { %class.QWidget }
%class.QByteArray = type { %struct.QArrayDataPointer }
%struct.QArrayDataPointer = type { ptr, ptr, i64 }
%class.QList = type { %struct.QArrayDataPointer.0 }
%struct.QArrayDataPointer.0 = type { ptr, ptr, i64 }
%class.RelatedPacketDelegate = type <{ %class.QStyledItemDelegate, %class.QHash, ptr, i32, [4 x i8] }>
%class.QStyledItemDelegate = type { %class.QAbstractItemDelegate }
%class.QAbstractItemDelegate = type { %class.QObject }
%class.QHash = type { ptr }
%class.QList.1 = type { %struct.QArrayDataPointer.4 }
%struct.QArrayDataPointer.4 = type { ptr, ptr, i64 }
%class.QList.5 = type { %struct.QArrayDataPointer.8 }
%struct.QArrayDataPointer.8 = type { ptr, ptr, i64 }

@prefs = external global %struct._e_prefs, align 8

; Function Attrs: mustprogress uwtable
define void @_ZN10PacketList18preferencesChangedEv(ptr noundef nonnull align 8 dereferenceable(464) %0) #0 align 2 {
  %2 = alloca ptr, align 8
  %3 = alloca i32, align 4
  store ptr %0, ptr %2, align 8
  %4 = load ptr, ptr %2, align 8
  %5 = load i32, ptr getelementptr inbounds (%struct._e_prefs, ptr @prefs, i32 0, i32 95), align 4
  %6 = icmp ne i32 %5, 0
  br i1 %6, label %7, label %9

7:                                                ; preds = %1
  %8 = getelementptr inbounds %class.PacketList, ptr %4, i32 0, i32 17
  call void @_ZN17QAbstractItemView24setItemDelegateForColumnEiP21QAbstractItemDelegate(ptr noundef nonnull align 8 dereferenceable(40) %4, i32 noundef 0, ptr noundef %8)
  br label %10

9:                                                ; preds = %1
  call void @_ZN17QAbstractItemView24setItemDelegateForColumnEiP21QAbstractItemDelegate(ptr noundef nonnull align 8 dereferenceable(40) %4, i32 noundef 0, ptr noundef null)
  br label %10

10:                                               ; preds = %9, %7
  %11 = load i32, ptr getelementptr inbounds (%struct._e_prefs, ptr @prefs, i32 0, i32 96), align 8
  %12 = icmp ne i32 %11, 0
  br i1 %12, label %13, label %21

13:                                               ; preds = %10
  %14 = getelementptr inbounds %class.PacketList, ptr %4, i32 0, i32 11
  %15 = load i32, ptr %14, align 8
  %16 = icmp eq i32 %15, 0
  br i1 %16, label %17, label %20

17:                                               ; preds = %13
  %18 = call noundef i32 @_ZN7QObject10startTimerEiN2Qt9TimerTypeE(ptr noundef nonnull align 8 dereferenceable(16) %4, i32 noundef 100, i32 noundef 1)
  %19 = getelementptr inbounds %class.PacketList, ptr %4, i32 0, i32 11
  store i32 %18, ptr %19, align 8
  br label %20

20:                                               ; preds = %17, %13
  br label %30

21:                                               ; preds = %10
  %22 = getelementptr inbounds %class.PacketList, ptr %4, i32 0, i32 11
  %23 = load i32, ptr %22, align 8
  %24 = icmp ne i32 %23, 0
  br i1 %24, label %25, label %29

25:                                               ; preds = %21
  %26 = getelementptr inbounds %class.PacketList, ptr %4, i32 0, i32 11
  %27 = load i32, ptr %26, align 8
  call void @_ZN7QObject9killTimerEi(ptr noundef nonnull align 8 dereferenceable(16) %4, i32 noundef %27)
  %28 = getelementptr inbounds %class.PacketList, ptr %4, i32 0, i32 11
  store i32 0, ptr %28, align 8
  br label %29

29:                                               ; preds = %25, %21
  br label %30

30:                                               ; preds = %29, %20
  store i32 1, ptr %3, align 4
  %31 = load i32, ptr getelementptr inbounds (%struct._e_prefs, ptr @prefs, i32 0, i32 94), align 8
  switch i32 %31, label %35 [
    i32 0, label %32
    i32 2, label %33
    i32 3, label %34
  ]

32:                                               ; preds = %30
  store i32 0, ptr %3, align 4
  br label %36

33:                                               ; preds = %30
  store i32 2, ptr %3, align 4
  br label %36

34:                                               ; preds = %30
  store i32 3, ptr %3, align 4
  br label %36

35:                                               ; preds = %30
  br label %36

36:                                               ; preds = %35, %34, %33, %32
  %37 = load i32, ptr %3, align 4
  call void @_ZN17QAbstractItemView16setTextElideModeEN2Qt13TextElideModeE(ptr noundef nonnull align 8 dereferenceable(40) %4, i32 noundef %37)
  ret void
}