; Function Attrs: mustprogress uwtable
define void @_ZN10PacketList18preferencesChangedEv(ptr noundef nonnull align 8 dereferenceable(464) %0) local_unnamed_addr #0 align 2 {
  %2 = load i32, ptr getelementptr inbounds (%struct._e_prefs, ptr @prefs, i64 0, i32 95), align 4
  %.not = icmp eq i32 %2, 0
  br i1 %.not, label %5, label %3

3:                                                ; preds = %1
  %4 = getelementptr inbounds i8, ptr %0, i64 296
  tail call void @_ZN17QAbstractItemView24setItemDelegateForColumnEiP21QAbstractItemDelegate(ptr noundef nonnull align 8 dereferenceable(40) %0, i32 noundef 0, ptr noundef nonnull %4)
  br label %6

5:                                                ; preds = %1
  tail call void @_ZN17QAbstractItemView24setItemDelegateForColumnEiP21QAbstractItemDelegate(ptr noundef nonnull align 8 dereferenceable(40) %0, i32 noundef 0, ptr noundef null)
  br label %6

6:                                                ; preds = %5, %3
  %7 = load i32, ptr getelementptr inbounds (%struct._e_prefs, ptr @prefs, i64 0, i32 96), align 8
  %.not2 = icmp eq i32 %7, 0
  %8 = getelementptr inbounds i8, ptr %0, i64 232
  %9 = load i32, ptr %8, align 8
  %.not3 = icmp eq i32 %9, 0
  br i1 %.not2, label %13, label %10

10:                                               ; preds = %6
  br i1 %.not3, label %11, label %switch.lookup

11:                                               ; preds = %10
  %12 = tail call noundef i32 @_ZN7QObject10startTimerEiN2Qt9TimerTypeE(ptr noundef nonnull align 8 dereferenceable(16) %0, i32 noundef 100, i32 noundef 1)
  br label %.sink.split

13:                                               ; preds = %6
  br i1 %.not3, label %switch.lookup, label %14

14:                                               ; preds = %13
  tail call void @_ZN7QObject9killTimerEi(ptr noundef nonnull align 8 dereferenceable(16) %0, i32 noundef %9)
  br label %.sink.split

.sink.split:                                      ; preds = %11, %14
  %.sink = phi i32 [ 0, %14 ], [ %12, %11 ]
  store i32 %.sink, ptr %8, align 8
  br label %switch.lookup

switch.lookup:                                    ; preds = %.sink.split, %13, %10
  %15 = load i32, ptr getelementptr inbounds (%struct._e_prefs, ptr @prefs, i64 0, i32 94), align 8
  %16 = icmp ult i32 %15, 4
  %spec.select = select i1 %16, i32 %15, i32 1
  tail call void @_ZN17QAbstractItemView16setTextElideModeEN2Qt13TextElideModeE(ptr noundef nonnull align 8 dereferenceable(40) %0, i32 noundef %spec.select)
  ret void
}